; Function Attrs: mustprogress uwtable
define void @upvec_close_77(ptr noundef %0) local_unnamed_addr #0 {
  %.not = icmp eq ptr %0, null
  br i1 %.not, label %4, label %2

2:                                                ; preds = %1
  %3 = load ptr, ptr %0, align 8, !tbaa !7
  tail call void @uprv_free_77(ptr noundef %3)
  tail call void @uprv_free_77(ptr noundef nonnull %0)
  br label %4

4:                                                ; preds = %2, %1
  ret void
}